; Function Attrs: mustprogress nofree norecurse nosync nounwind willreturn memory(none) uwtable
define dso_local i32 @onig_positive_int_multiply(i32 noundef %0, i32 noundef %1) local_unnamed_addr #2 {
  %3 = icmp eq i32 %0, 0
  %4 = icmp eq i32 %1, 0
  %or.cond = or i1 %3, %4
  br i1 %or.cond, label %9, label %5

5:                                                ; preds = %2
  %6 = sdiv i32 2147483647, %1
  %7 = icmp slt i32 %0, %6
  %8 = mul nsw i32 %1, %0
  %spec.select = select i1 %7, i32 %8, i32 -1
  br label %9

9:                                                ; preds = %5, %2
  %.0 = phi i32 [ 0, %2 ], [ %spec.select, %5 ]
  ret i32 %.0
}